target datalayout = "e-m:e-p270:32:32-p271:32:32-p272:64:64-i64:64-i128:128-f80:128-n8:16:32:64-S128"
target triple = "x86_64-pc-linux-gnu"

%struct.DdManager = type { %struct.DdNode, ptr, ptr, ptr, ptr, ptr, ptr, ptr, i32, i32, double, double, double, i32, i32, i32, i32, i32, i32, ptr, ptr, %struct.DdSubtable, i32, i32, i32, i32, i32, i32, i32, double, i32, i32, i32, ptr, i64, double, i32, ptr, ptr, ptr, ptr, ptr, ptr, ptr, i32, ptr, ptr, ptr, ptr, ptr, ptr, i32, i32, i32, double, i32, i32, i32, i32, double, double, i32, i32, i32, i32, i32, i32, i32, i32, i32, ptr, ptr, i32, i32, i32, i32, i32, i32, ptr, ptr, ptr, ptr, ptr, ptr, ptr, ptr, i32, i64, i64, i64, i32, i64, i64, double, double, double, double, double, double, i32, ptr, ptr, i64 }
%struct.DdNode = type { i32, i32, ptr, %union.anon, i64 }
%union.anon = type { %struct.DdChildren }
%struct.DdChildren = type { ptr, ptr }
%struct.DdSubtable = type { ptr, i32, i32, i32, i32, i32, i32, i32, i32, i32, i32, i32 }
%struct.Vec_Ptr_t_ = type { i32, i32, ptr }
%struct.timespec = type { i64, i64 }

@.str.10 = private unnamed_addr constant [23 x i8] c"Part %2d : Init =%5d. \00", align 1
@.str.11 = private unnamed_addr constant [13 x i8] c"Quant =%5d. \00", align 1
@.str.12 = private unnamed_addr constant [12 x i8] c"Reo = %5d. \00", align 1
@.str.13 = private unnamed_addr constant [13 x i8] c"Reo = %5d.  \00", align 1
@.str.14 = private unnamed_addr constant [14 x i8] c"Supp = %3d.  \00", align 1
@.str.15 = private unnamed_addr constant [5 x i8] c"Time\00", align 1
@.str.25 = private unnamed_addr constant [5 x i8] c"%s =\00", align 1
@.str.26 = private unnamed_addr constant [11 x i8] c"%9.2f sec\0A\00", align 1

; Function Attrs: inlinehint nounwind uwtable
define internal void @Abc_PrintTime(i32 noundef %0, ptr noundef %1, i64 noundef %2) #3 {
  %4 = alloca i32, align 4
  %5 = alloca ptr, align 8
  %6 = alloca i64, align 8
  store i32 %0, ptr %4, align 4, !tbaa !12
  store ptr %1, ptr %5, align 8, !tbaa !86
  store i64 %2, ptr %6, align 8, !tbaa !75
  %7 = load ptr, ptr %5, align 8, !tbaa !86
  call void (i32, ptr, ...) @Abc_Print(i32 noundef 1, ptr noundef @.str.25, ptr noundef %7)
  %8 = load i64, ptr %6, align 8, !tbaa !75
  %9 = sitofp i64 %8 to double
  %10 = fmul double 1.000000e+00, %9
  %11 = fdiv double %10, 1.000000e+06
  call void (i32, ptr, ...) @Abc_Print(i32 noundef 1, ptr noundef @.str.26, double noundef %11)
  ret void
}

; Function Attrs: inlinehint nounwind uwtable
define internal ptr @Vec_PtrEntry(ptr noundef %0, i32 noundef %1) #3 {
  %3 = alloca ptr, align 8
  %4 = alloca i32, align 4
  store ptr %0, ptr %3, align 8, !tbaa !8
  store i32 %1, ptr %4, align 4, !tbaa !12
  %5 = load ptr, ptr %3, align 8, !tbaa !8
  %6 = getelementptr inbounds nuw %struct.Vec_Ptr_t_, ptr %5, i32 0, i32 2
  %7 = load ptr, ptr %6, align 8, !tbaa !55
  %8 = load i32, ptr %4, align 4, !tbaa !12
  %9 = sext i32 %8 to i64
  %10 = getelementptr inbounds ptr, ptr %7, i64 %9
  %11 = load ptr, ptr %10, align 8, !tbaa !57
  ret ptr %11
}

; Function Attrs: inlinehint nounwind uwtable
define internal i32 @Vec_PtrSize(ptr noundef %0) #3 {
  %2 = alloca ptr, align 8
  store ptr %0, ptr %2, align 8, !tbaa !8
  %3 = load ptr, ptr %2, align 8, !tbaa !8
  %4 = getelementptr inbounds nuw %struct.Vec_Ptr_t_, ptr %3, i32 0, i32 1
  %5 = load i32, ptr %4, align 4, !tbaa !58
  ret i32 %5
}

; Function Attrs: inlinehint nounwind uwtable
define internal i64 @Abc_Clock() #3 {
  %1 = alloca i64, align 8
  %2 = alloca %struct.timespec, align 8
  %3 = alloca i32, align 4
  %4 = alloca i64, align 8
  call void @llvm.lifetime.start.p0(i64 16, ptr %2) #10
  %5 = call i32 @clock_gettime(i32 noundef 1, ptr noundef %2) #10
  %6 = icmp slt i32 %5, 0
  br i1 %6, label %7, label %8

7:                                                ; preds = %0
  store i64 -1, ptr %1, align 8
  store i32 1, ptr %3, align 4
  br label %19

8:                                                ; preds = %0
  call void @llvm.lifetime.start.p0(i64 8, ptr %4) #10
  %9 = getelementptr inbounds nuw %struct.timespec, ptr %2, i32 0, i32 0
  %10 = load i64, ptr %9, align 8, !tbaa !91
  %11 = mul nsw i64 %10, 1000000
  store i64 %11, ptr %4, align 8, !tbaa !75
  %12 = getelementptr inbounds nuw %struct.timespec, ptr %2, i32 0, i32 1
  %13 = load i64, ptr %12, align 8, !tbaa !93
  %14 = mul nsw i64 %13, 1000000
  %15 = sdiv i64 %14, 1000000000
  %16 = load i64, ptr %4, align 8, !tbaa !75
  %17 = add nsw i64 %16, %15
  store i64 %17, ptr %4, align 8, !tbaa !75
  %18 = load i64, ptr %4, align 8, !tbaa !75
  store i64 %18, ptr %1, align 8
  store i32 1, ptr %3, align 4
  call void @llvm.lifetime.end.p0(i64 8, ptr %4) #10
  br label %19

19:                                               ; preds = %8, %7
  call void @llvm.lifetime.end.p0(i64 16, ptr %2) #10
  %20 = load i64, ptr %1, align 8
  ret i64 %20
}

; Function Attrs: nounwind uwtable
define void @Llb_ImgQuantifyFirst(ptr noundef %0, ptr noundef %1, ptr noundef %2, i32 noundef %3) #0 {
  %5 = alloca ptr, align 8
  %6 = alloca ptr, align 8
  %7 = alloca ptr, align 8
  %8 = alloca i32, align 4
  %9 = alloca ptr, align 8
  %10 = alloca ptr, align 8
  %11 = alloca ptr, align 8
  %12 = alloca ptr, align 8
  %13 = alloca i32, align 4
  %14 = alloca i64, align 8
  store ptr %0, ptr %5, align 8, !tbaa !3
  store ptr %1, ptr %6, align 8, !tbaa !8
  store ptr %2, ptr %7, align 8, !tbaa !8
  store i32 %3, ptr %8, align 4, !tbaa !12
  call void @llvm.lifetime.start.p0(i64 8, ptr %9) #10
  call void @llvm.lifetime.start.p0(i64 8, ptr %10) #10
  call void @llvm.lifetime.start.p0(i64 8, ptr %11) #10
  call void @llvm.lifetime.start.p0(i64 8, ptr %12) #10
  call void @llvm.lifetime.start.p0(i64 4, ptr %13) #10
  call void @llvm.lifetime.start.p0(i64 8, ptr %14) #10
  %15 = call i64 @Abc_Clock()
  store i64 %15, ptr %14, align 8, !tbaa !75
  store i32 0, ptr %13, align 4, !tbaa !12
  br label %16

16:                                               ; preds = %104, %4
  %17 = load i32, ptr %13, align 4, !tbaa !12
  %18 = load ptr, ptr %6, align 8, !tbaa !8
  %19 = call i32 @Vec_PtrSize(ptr noundef %18)
  %20 = icmp slt i32 %17, %19
  br i1 %20, label %21, label %25

21:                                               ; preds = %16
  %22 = load ptr, ptr %6, align 8, !tbaa !8
  %23 = load i32, ptr %13, align 4, !tbaa !12
  %24 = call ptr @Vec_PtrEntry(ptr noundef %22, i32 noundef %23)
  store ptr %24, ptr %9, align 8, !tbaa !16
  br label %25

25:                                               ; preds = %21, %16
  %26 = phi i1 [ false, %16 ], [ true, %21 ]
  br i1 %26, label %27, label %107

27:                                               ; preds = %25
  %28 = load ptr, ptr %9, align 8, !tbaa !16
  %29 = getelementptr inbounds nuw %struct.DdManager, ptr %28, i32 0, i32 100
  %30 = load ptr, ptr %29, align 8, !tbaa !18
  %31 = load ptr, ptr %9, align 8, !tbaa !16
  %32 = getelementptr inbounds nuw %struct.DdManager, ptr %31, i32 0, i32 101
  store ptr %30, ptr %32, align 8, !tbaa !84
  %33 = load ptr, ptr %9, align 8, !tbaa !16
  %34 = getelementptr inbounds nuw %struct.DdManager, ptr %33, i32 0, i32 101
  %35 = load ptr, ptr %34, align 8, !tbaa !84
  call void @Cudd_Ref(ptr noundef %35)
  %36 = load ptr, ptr %9, align 8, !tbaa !16
  call void @Cudd_AutodynEnable(ptr noundef %36, i32 noundef 6)
  %37 = load ptr, ptr %9, align 8, !tbaa !16
  %38 = getelementptr inbounds nuw %struct.DdManager, ptr %37, i32 0, i32 100
  %39 = load ptr, ptr %38, align 8, !tbaa !18
  store ptr %39, ptr %11, align 8, !tbaa !35
  %40 = load i32, ptr %8, align 4, !tbaa !12
  %41 = icmp ne i32 %40, 0
  br i1 %41, label %42, label %46

42:                                               ; preds = %27
  %43 = load i32, ptr %13, align 4, !tbaa !12
  %44 = load ptr, ptr %11, align 8, !tbaa !35
  %45 = call i32 @Cudd_DagSize(ptr noundef %44)
  call void (i32, ptr, ...) @Abc_Print(i32 noundef 1, ptr noundef @.str.10, i32 noundef %43, i32 noundef %45)
  br label %46

46:                                               ; preds = %42, %27
  %47 = load ptr, ptr %5, align 8, !tbaa !3
  %48 = load ptr, ptr %7, align 8, !tbaa !8
  %49 = load i32, ptr %13, align 4, !tbaa !12
  %50 = add nsw i32 %49, 1
  %51 = call ptr @Vec_PtrEntry(ptr noundef %48, i32 noundef %50)
  %52 = load ptr, ptr %9, align 8, !tbaa !16
  %53 = call ptr @Llb_ImgComputeCube(ptr noundef %47, ptr noundef %51, ptr noundef %52)
  store ptr %53, ptr %10, align 8, !tbaa !35
  %54 = load ptr, ptr %10, align 8, !tbaa !35
  call void @Cudd_Ref(ptr noundef %54)
  %55 = load ptr, ptr %9, align 8, !tbaa !16
  %56 = load ptr, ptr %11, align 8, !tbaa !35
  store ptr %56, ptr %12, align 8, !tbaa !35
  %57 = load ptr, ptr %10, align 8, !tbaa !35
  %58 = call ptr @Cudd_bddExistAbstract(ptr noundef %55, ptr noundef %56, ptr noundef %57)
  store ptr %58, ptr %11, align 8, !tbaa !35
  %59 = load ptr, ptr %11, align 8, !tbaa !35
  call void @Cudd_Ref(ptr noundef %59)
  %60 = load ptr, ptr %9, align 8, !tbaa !16
  %61 = load ptr, ptr %12, align 8, !tbaa !35
  call void @Cudd_RecursiveDeref(ptr noundef %60, ptr noundef %61)
  %62 = load ptr, ptr %9, align 8, !tbaa !16
  %63 = load ptr, ptr %10, align 8, !tbaa !35
  call void @Cudd_RecursiveDeref(ptr noundef %62, ptr noundef %63)
  %64 = load ptr, ptr %11, align 8, !tbaa !35
  %65 = load ptr, ptr %9, align 8, !tbaa !16
  %66 = getelementptr inbounds nuw %struct.DdManager, ptr %65, i32 0, i32 100
  store ptr %64, ptr %66, align 8, !tbaa !18
  %67 = load ptr, ptr %9, align 8, !tbaa !16
  call void @Cudd_AutodynDisable(ptr noundef %67)
  %68 = load i32, ptr %8, align 4, !tbaa !12
  %69 = icmp ne i32 %68, 0
  br i1 %69, label %70, label %73

70:                                               ; preds = %46
  %71 = load ptr, ptr %11, align 8, !tbaa !35
  %72 = call i32 @Cudd_DagSize(ptr noundef %71)
  call void (i32, ptr, ...) @Abc_Print(i32 noundef 1, ptr noundef @.str.11, i32 noundef %72)
  br label %73

73:                                               ; preds = %70, %46
  %74 = load ptr, ptr %9, align 8, !tbaa !16
  %75 = call i32 @Cudd_ReduceHeap(ptr noundef %74, i32 noundef 6, i32 noundef 100)
  %76 = load i32, ptr %8, align 4, !tbaa !12
  %77 = icmp ne i32 %76, 0
  br i1 %77, label %78, label %81

78:                                               ; preds = %73
  %79 = load ptr, ptr %11, align 8, !tbaa !35
  %80 = call i32 @Cudd_DagSize(ptr noundef %79)
  call void (i32, ptr, ...) @Abc_Print(i32 noundef 1, ptr noundef @.str.12, i32 noundef %80)
  br label %81

81:                                               ; preds = %78, %73
  %82 = load ptr, ptr %9, align 8, !tbaa !16
  %83 = call i32 @Cudd_ReduceHeap(ptr noundef %82, i32 noundef 6, i32 noundef 100)
  %84 = load i32, ptr %8, align 4, !tbaa !12
  %85 = icmp ne i32 %84, 0
  br i1 %85, label %86, label %89

86:                                               ; preds = %81
  %87 = load ptr, ptr %11, align 8, !tbaa !35
  %88 = call i32 @Cudd_DagSize(ptr noundef %87)
  call void (i32, ptr, ...) @Abc_Print(i32 noundef 1, ptr noundef @.str.13, i32 noundef %88)
  br label %89

89:                                               ; preds = %86, %81
  %90 = load i32, ptr %8, align 4, !tbaa !12
  %91 = icmp ne i32 %90, 0
  br i1 %91, label %92, label %96

92:                                               ; preds = %89
  %93 = load ptr, ptr %9, align 8, !tbaa !16
  %94 = load ptr, ptr %11, align 8, !tbaa !35
  %95 = call i32 @Cudd_SupportSize(ptr noundef %93, ptr noundef %94)
  call void (i32, ptr, ...) @Abc_Print(i32 noundef 1, ptr noundef @.str.14, i32 noundef %95)
  br label %96

96:                                               ; preds = %92, %89
  %97 = load i32, ptr %8, align 4, !tbaa !12
  %98 = icmp ne i32 %97, 0
  br i1 %98, label %99, label %103

99:                                               ; preds = %96
  %100 = call i64 @Abc_Clock()
  %101 = load i64, ptr %14, align 8, !tbaa !75
  %102 = sub nsw i64 %100, %101
  call void @Abc_PrintTime(i32 noundef 1, ptr noundef @.str.15, i64 noundef %102)
  br label %103

103:                                              ; preds = %99, %96
  br label %104

104:                                              ; preds = %103
  %105 = load i32, ptr %13, align 4, !tbaa !12
  %106 = add nsw i32 %105, 1
  store i32 %106, ptr %13, align 4, !tbaa !12
  br label %16, !llvm.loop !85

107:                                              ; preds = %25
  call void @llvm.lifetime.end.p0(i64 8, ptr %14) #10
  call void @llvm.lifetime.end.p0(i64 4, ptr %13) #10
  call void @llvm.lifetime.end.p0(i64 8, ptr %12) #10
  call void @llvm.lifetime.end.p0(i64 8, ptr %11) #10
  call void @llvm.lifetime.end.p0(i64 8, ptr %10) #10
  call void @llvm.lifetime.end.p0(i64 8, ptr %9) #10
  ret void
}