; Function Attrs: nounwind uwtable
define void @Llb_ImgQuantifyFirst(ptr noundef readonly captures(none) %0, ptr noundef readonly captures(none) %1, ptr noundef readonly captures(none) %2, i32 noundef %3) local_unnamed_addr #0 {
  %5 = alloca %struct.timespec, align 8
  %6 = alloca %struct.timespec, align 8
  call void @llvm.lifetime.start.p0(i64 16, ptr nonnull %6) #13
  %7 = call i32 @clock_gettime(i32 noundef 1, ptr noundef nonnull %6) #13
  %8 = icmp slt i32 %7, 0
  br i1 %8, label %Abc_Clock.exit, label %9

9:                                                ; preds = %4
  %10 = load i64, ptr %6, align 8, !tbaa !77
  %.neg52 = mul i64 %10, -1000000
  %11 = getelementptr inbounds nuw i8, ptr %6, i64 8
  %12 = load i64, ptr %11, align 8, !tbaa !79
  %.neg = sdiv i64 %12, -1000
  %.neg53 = add i64 %.neg, %.neg52
  br label %Abc_Clock.exit

Abc_Clock.exit:                                   ; preds = %4, %9
  %.0.i.neg = phi i64 [ %.neg53, %9 ], [ 1, %4 ]
  call void @llvm.lifetime.end.p0(i64 16, ptr nonnull %6) #13
  %13 = getelementptr i8, ptr %1, i64 4
  %.val4954 = load i32, ptr %13, align 4, !tbaa !19
  %14 = icmp sgt i32 %.val4954, 0
  br i1 %14, label %.lr.ph, label %.critedge

.lr.ph:                                           ; preds = %Abc_Clock.exit
  %15 = getelementptr i8, ptr %1, i64 8
  %.not = icmp eq i32 %3, 0
  %16 = getelementptr i8, ptr %2, i64 8
  %17 = getelementptr inbounds nuw i8, ptr %5, i64 8
  br i1 %.not, label %.thread.us, label %.critedge46

.thread.us:                                       ; preds = %.lr.ph, %.thread.us
  %indvars.iv58 = phi i64 [ %indvars.iv.next59, %.thread.us ], [ 0, %.lr.ph ]
  %.val48.us = load ptr, ptr %15, align 8, !tbaa !3
  %18 = getelementptr inbounds nuw ptr, ptr %.val48.us, i64 %indvars.iv58
  %19 = load ptr, ptr %18, align 8, !tbaa !9
  %20 = getelementptr inbounds nuw i8, ptr %19, i64 736
  %21 = load ptr, ptr %20, align 8, !tbaa !20
  %22 = getelementptr inbounds nuw i8, ptr %19, i64 744
  store ptr %21, ptr %22, align 8, !tbaa !80
  call void @Cudd_Ref(ptr noundef %21) #13
  call void @Cudd_AutodynEnable(ptr noundef %19, i32 noundef 6) #13
  %23 = load ptr, ptr %20, align 8, !tbaa !20
  %indvars.iv.next59 = add nuw nsw i64 %indvars.iv58, 1
  %.val.us = load ptr, ptr %16, align 8, !tbaa !3
  %24 = getelementptr inbounds nuw ptr, ptr %.val.us, i64 %indvars.iv.next59
  %25 = load ptr, ptr %24, align 8, !tbaa !9
  %26 = call ptr @Llb_ImgComputeCube(ptr noundef %0, ptr noundef %25, ptr noundef nonnull %19)
  call void @Cudd_Ref(ptr noundef %26) #13
  %27 = call ptr @Cudd_bddExistAbstract(ptr noundef nonnull %19, ptr noundef %23, ptr noundef %26) #13
  call void @Cudd_Ref(ptr noundef %27) #13
  call void @Cudd_RecursiveDeref(ptr noundef nonnull %19, ptr noundef %23) #13
  call void @Cudd_RecursiveDeref(ptr noundef nonnull %19, ptr noundef %26) #13
  store ptr %27, ptr %20, align 8, !tbaa !20
  call void @Cudd_AutodynDisable(ptr noundef nonnull %19) #13
  %28 = call i32 @Cudd_ReduceHeap(ptr noundef nonnull %19, i32 noundef 6, i32 noundef 100) #13
  %29 = call i32 @Cudd_ReduceHeap(ptr noundef nonnull %19, i32 noundef 6, i32 noundef 100) #13
  %.val49.us = load i32, ptr %13, align 4, !tbaa !19
  %30 = sext i32 %.val49.us to i64
  %31 = icmp slt i64 %indvars.iv.next59, %30
  br i1 %31, label %.thread.us, label %.critedge, !llvm.loop !81

.critedge46:                                      ; preds = %.lr.ph, %Abc_Clock.exit51
  %indvars.iv = phi i64 [ %indvars.iv.next, %Abc_Clock.exit51 ], [ 0, %.lr.ph ]
  %.val48 = load ptr, ptr %15, align 8, !tbaa !3
  %32 = getelementptr inbounds nuw ptr, ptr %.val48, i64 %indvars.iv
  %33 = load ptr, ptr %32, align 8, !tbaa !9
  %34 = getelementptr inbounds nuw i8, ptr %33, i64 736
  %35 = load ptr, ptr %34, align 8, !tbaa !20
  %36 = getelementptr inbounds nuw i8, ptr %33, i64 744
  store ptr %35, ptr %36, align 8, !tbaa !80
  call void @Cudd_Ref(ptr noundef %35) #13
  call void @Cudd_AutodynEnable(ptr noundef %33, i32 noundef 6) #13
  %37 = load ptr, ptr %34, align 8, !tbaa !20
  %38 = call i32 @Cudd_DagSize(ptr noundef %37) #13
  %39 = trunc nuw nsw i64 %indvars.iv to i32
  call void (i32, ptr, ...) @Abc_Print(i32 poison, ptr noundef nonnull @.str.10, i32 noundef %39, i32 noundef %38)
  %indvars.iv.next = add nuw nsw i64 %indvars.iv, 1
  %.val = load ptr, ptr %16, align 8, !tbaa !3
  %40 = getelementptr inbounds nuw ptr, ptr %.val, i64 %indvars.iv.next
  %41 = load ptr, ptr %40, align 8, !tbaa !9
  %42 = call ptr @Llb_ImgComputeCube(ptr noundef %0, ptr noundef %41, ptr noundef nonnull %33)
  call void @Cudd_Ref(ptr noundef %42) #13
  %43 = call ptr @Cudd_bddExistAbstract(ptr noundef nonnull %33, ptr noundef %37, ptr noundef %42) #13
  call void @Cudd_Ref(ptr noundef %43) #13
  call void @Cudd_RecursiveDeref(ptr noundef nonnull %33, ptr noundef %37) #13
  call void @Cudd_RecursiveDeref(ptr noundef nonnull %33, ptr noundef %42) #13
  store ptr %43, ptr %34, align 8, !tbaa !20
  call void @Cudd_AutodynDisable(ptr noundef nonnull %33) #13
  %44 = call i32 @Cudd_DagSize(ptr noundef %43) #13
  call void (i32, ptr, ...) @Abc_Print(i32 poison, ptr noundef nonnull @.str.11, i32 noundef %44)
  %45 = call i32 @Cudd_ReduceHeap(ptr noundef nonnull %33, i32 noundef 6, i32 noundef 100) #13
  %46 = call i32 @Cudd_DagSize(ptr noundef %43) #13
  call void (i32, ptr, ...) @Abc_Print(i32 poison, ptr noundef nonnull @.str.12, i32 noundef %46)
  %47 = call i32 @Cudd_ReduceHeap(ptr noundef nonnull %33, i32 noundef 6, i32 noundef 100) #13
  %48 = call i32 @Cudd_DagSize(ptr noundef %43) #13
  call void (i32, ptr, ...) @Abc_Print(i32 poison, ptr noundef nonnull @.str.13, i32 noundef %48)
  %49 = call i32 @Cudd_SupportSize(ptr noundef nonnull %33, ptr noundef %43) #13
  call void (i32, ptr, ...) @Abc_Print(i32 poison, ptr noundef nonnull @.str.14, i32 noundef %49)
  call void @llvm.lifetime.start.p0(i64 16, ptr nonnull %5) #13
  %50 = call i32 @clock_gettime(i32 noundef 1, ptr noundef nonnull %5) #13
  %51 = icmp slt i32 %50, 0
  br i1 %51, label %Abc_Clock.exit51, label %52

52:                                               ; preds = %.critedge46
  %53 = load i64, ptr %5, align 8, !tbaa !77
  %54 = mul nsw i64 %53, 1000000
  %55 = load i64, ptr %17, align 8, !tbaa !79
  %56 = sdiv i64 %55, 1000
  %57 = add nsw i64 %56, %54
  br label %Abc_Clock.exit51

Abc_Clock.exit51:                                 ; preds = %.critedge46, %52
  %.0.i50 = phi i64 [ %57, %52 ], [ -1, %.critedge46 ]
  call void @llvm.lifetime.end.p0(i64 16, ptr nonnull %5) #13
  %58 = add i64 %.0.i50, %.0.i.neg
  call void (i32, ptr, ...) @Abc_Print(i32 poison, ptr noundef nonnull @.str.25, ptr noundef nonnull @.str.15)
  %59 = sitofp i64 %58 to double
  %60 = fdiv double %59, 1.000000e+06
  call void (i32, ptr, ...) @Abc_Print(i32 poison, ptr noundef nonnull @.str.26, double noundef %60)
  %.val49 = load i32, ptr %13, align 4, !tbaa !19
  %61 = sext i32 %.val49 to i64
  %62 = icmp slt i64 %indvars.iv.next, %61
  br i1 %62, label %.critedge46, label %.critedge, !llvm.loop !81

.critedge:                                        ; preds = %Abc_Clock.exit51, %.thread.us, %Abc_Clock.exit
  ret void
}